ccopy_reg
_reconstructor
p1
(csklearn.linear_model.logistic
LogisticRegression
p2
c__builtin__
object
p3
NtRp4
(dp5
S'warm_start'
p6
I00
sS'C'
F1
sS'max_iter'
p7
I100
sS'verbose'
p8
I0
sS'intercept_scaling'
p9
I1
sS'dual'
p10
I00
sS'fit_intercept'
p11
I01
sS'classes_'
p12
cnumpy.core.multiarray
_reconstruct
p13
(cnumpy
ndarray
p14
(I0
tS'b'
tRp15
(I1
(I2
tcnumpy
dtype
p16
(S'i8'
I0
I1
tRp17
(I3
S'<'
NNNI-1
I-1
I0
tbI00
S'\x00\x00\x00\x00\x00\x00\x00\x00\x01\x00\x00\x00\x00\x00\x00\x00'
tbsS'solver'
p18
S'liblinear'
p19
sS'n_iter_'
p20
g13
(g14
(I0
tS'b'
tRp21
(I1
(I1
tg16
(S'i4'
I0
I1
tRp22
(I3
S'<'
NNNI-1
I-1
I0
tbI00
S'\x1a\x00\x00\x00'
tbsS'penalty'
p23
S'l1'
p24
sS'multi_class'
p25
S'ovr'
p26
sS'random_state'
p27
NsS'tol'
p28
F0.0001
sS'n_jobs'
p29
I1
sS'coef_'
p30
g13
(g14
(I0
tS'b'
tRp31
(I1
(I1
I4
tg16
(S'f8'
I0
I1
tRp32
(I3
S'<'
NNNI-1
I-1
I0
tbI01
S'\xb9\xe5hB\xeb\xd1\xbc?w\xf5\x113\x93\xf4\xef?\x00\x00\x00\x00\x00\x00\x00\x00\xcc7\xee\x15\x16G%@'
tbsS'intercept_'
p33
g13
(g14
(I0
tS'b'
tRp34
(I1
(I1
tg32
I00
S'H\xbf\xa0+_8\x0e\xc0'
tbsS'class_weight'
p35
S'balanced'
p36
sb.